target datalayout = "e-m:e-p270:32:32-p271:32:32-p272:64:64-i64:64-i128:128-f80:128-n8:16:32:64-S128"
target triple = "x86_64-pc-linux-gnu"

%struct.iperf3_tcp_conversation_data = type { i8, i32, i32 }
%struct._packet_info = type { ptr, ptr, i32, i32, %struct.nstime_t, %struct.nstime_t, %struct.nstime_t, i8, ptr, ptr, ptr, ptr, %struct._address, %struct._address, %struct._address, %struct._address, %struct._address, %struct._address, i32, ptr, i8, [3 x i8], %struct.anon, i32, i32, i32, i32, ptr, i8, ptr, ptr, i16, i16, i32, i32, i16, i32, i32, ptr, ptr, ptr, i8, i8, i16, i16, i16, i32, i16, i16, ptr, ptr, ptr, ptr, ptr, i32, i32 }
%struct.nstime_t = type { i64, i32 }
%struct._address = type { i32, i32, ptr, ptr }
%struct.anon = type { i8, [3 x i8] }
%struct._frame_data = type <{ i32, i32, i32, i32, i32, [4 x i8], i64, ptr, ptr, ptr, i8, i16, [5 x i8], %struct.nstime_t, %struct.nstime_t, i32, i32 }>
%struct.iperf3_tcp_packet_data = type { i32, i32 }

@hf_iperf3_cookie = internal global i32 0, align 4
@ett_iperf3 = internal global i32 0, align 4
@.str.15 = private unnamed_addr constant [7 x i8] c"iPerf3\00", align 1
@proto_iperf3 = internal global i32 0, align 4
@cookiejar = internal global ptr null, align 8
@.str.50 = private unnamed_addr constant [55 x i8] c"%s:%u: failed assertion \22DISSECTOR_ASSERT_NOT_REACHED\22\00", align 1
@.str.51 = private unnamed_addr constant [32 x i8] c"epan/dissectors/packet-iperf3.c\00", align 1
@.str.52 = private unnamed_addr constant [29 x i8] c"%s:%u: failed assertion \22%s\22\00", align 1
@.str.53 = private unnamed_addr constant [12 x i8] c"packet_data\00", align 1
@.str.54 = private unnamed_addr constant [14 x i8] c" Cookie: \22%s\22\00", align 1

; Function Attrs: null_pointer_is_valid sspstrong uwtable
define internal i32 @dissect_iperf3_data_pdu(ptr noundef %0, ptr noundef %1, ptr noundef %2, ptr noundef %3) #0 {
  %5 = alloca ptr, align 8
  %6 = alloca ptr, align 8
  %7 = alloca ptr, align 8
  %8 = alloca ptr, align 8
  %9 = alloca ptr, align 8
  %10 = alloca ptr, align 8
  %11 = alloca ptr, align 8
  %12 = alloca ptr, align 8
  store ptr %0, ptr %5, align 8
  store ptr %1, ptr %6, align 8
  store ptr %2, ptr %7, align 8
  store ptr %3, ptr %8, align 8
  call void @llvm.lifetime.start.p0(i64 8, ptr %9) #6
  %13 = load ptr, ptr %8, align 8
  store ptr %13, ptr %9, align 8
  call void @llvm.lifetime.start.p0(i64 8, ptr %10) #6
  %14 = load ptr, ptr %7, align 8
  %15 = load i32, ptr @proto_iperf3, align 4
  %16 = load ptr, ptr %5, align 8
  %17 = call ptr @proto_tree_add_item(ptr noundef %14, i32 noundef %15, ptr noundef %16, i32 noundef 0, i32 noundef -1, i32 noundef 0)
  store ptr %17, ptr %10, align 8
  call void @llvm.lifetime.start.p0(i64 8, ptr %11) #6
  %18 = load ptr, ptr %10, align 8
  %19 = load i32, ptr @ett_iperf3, align 4
  %20 = call ptr @proto_item_add_subtree(ptr noundef %18, i32 noundef %19)
  store ptr %20, ptr %11, align 8
  %21 = load ptr, ptr %9, align 8
  %22 = getelementptr inbounds nuw %struct.iperf3_tcp_conversation_data, ptr %21, i32 0, i32 2
  %23 = load i32, ptr %22, align 4
  switch i32 %23, label %46 [
    i32 0, label %24
    i32 8, label %41
  ]

24:                                               ; preds = %4
  call void @llvm.lifetime.start.p0(i64 8, ptr %12) #6
  %25 = load ptr, ptr %11, align 8
  %26 = load i32, ptr @hf_iperf3_cookie, align 4
  %27 = load ptr, ptr %5, align 8
  %28 = load ptr, ptr %6, align 8
  %29 = getelementptr inbounds nuw %struct._packet_info, ptr %28, i32 0, i32 51
  %30 = load ptr, ptr %29, align 8
  %31 = call ptr @proto_tree_add_item_ret_string(ptr noundef %25, i32 noundef %26, ptr noundef %27, i32 noundef 0, i32 noundef 37, i32 noundef 0, ptr noundef %30, ptr noundef %12)
  %32 = load ptr, ptr %6, align 8
  call void @col_info_preface_TCP(ptr noundef %32)
  %33 = load ptr, ptr %6, align 8
  %34 = getelementptr inbounds nuw %struct._packet_info, ptr %33, i32 0, i32 1
  %35 = load ptr, ptr %34, align 8
  %36 = load ptr, ptr %12, align 8
  call void (ptr, i32, ptr, ...) @col_append_fstr(ptr noundef %35, i32 noundef 25, ptr noundef @.str.54, ptr noundef %36)
  %37 = load ptr, ptr %9, align 8
  %38 = getelementptr inbounds nuw %struct.iperf3_tcp_conversation_data, ptr %37, i32 0, i32 1
  store i32 0, ptr %38, align 4
  %39 = load ptr, ptr %9, align 8
  %40 = getelementptr inbounds nuw %struct.iperf3_tcp_conversation_data, ptr %39, i32 0, i32 2
  store i32 8, ptr %40, align 4
  call void @llvm.lifetime.end.p0(i64 8, ptr %12) #6
  br label %47

41:                                               ; preds = %4
  %42 = load ptr, ptr %5, align 8
  %43 = load ptr, ptr %6, align 8
  %44 = load ptr, ptr %7, align 8
  %45 = call i32 @call_data_dissector(ptr noundef %42, ptr noundef %43, ptr noundef %44)
  br label %47

46:                                               ; preds = %4
  call void (ptr, ...) @proto_report_dissector_bug(ptr noundef @.str.50, ptr noundef @.str.51, i32 noundef 313) #8
  unreachable

47:                                               ; preds = %41, %24
  %48 = load ptr, ptr %5, align 8
  %49 = call i32 @tvb_reported_length(ptr noundef %48)
  call void @llvm.lifetime.end.p0(i64 8, ptr %11) #6
  call void @llvm.lifetime.end.p0(i64 8, ptr %10) #6
  call void @llvm.lifetime.end.p0(i64 8, ptr %9) #6
  ret i32 %49
}

; Function Attrs: null_pointer_is_valid sspstrong uwtable
define internal void @col_info_preface_TCP(ptr noundef %0) #0 {
  %2 = alloca ptr, align 8
  store ptr %0, ptr %2, align 8
  %3 = load ptr, ptr %2, align 8
  %4 = getelementptr inbounds nuw %struct._packet_info, ptr %3, i32 0, i32 1
  %5 = load ptr, ptr %4, align 8
  call void @col_set_str(ptr noundef %5, i32 noundef 35, ptr noundef @.str.15)
  %6 = load ptr, ptr %2, align 8
  %7 = getelementptr inbounds nuw %struct._packet_info, ptr %6, i32 0, i32 1
  %8 = load ptr, ptr %7, align 8
  call void @col_clear(ptr noundef %8, i32 noundef 25)
  %9 = load ptr, ptr %2, align 8
  %10 = getelementptr inbounds nuw %struct._packet_info, ptr %9, i32 0, i32 1
  %11 = load ptr, ptr %10, align 8
  %12 = load ptr, ptr %2, align 8
  %13 = getelementptr inbounds nuw %struct._packet_info, ptr %12, i32 0, i32 24
  %14 = load i32, ptr %13, align 4
  %15 = trunc i32 %14 to i16
  %16 = load ptr, ptr %2, align 8
  %17 = getelementptr inbounds nuw %struct._packet_info, ptr %16, i32 0, i32 25
  %18 = load i32, ptr %17, align 8
  %19 = trunc i32 %18 to i16
  call void @col_append_ports(ptr noundef %11, i32 noundef 25, i32 noundef 2, i16 noundef zeroext %15, i16 noundef zeroext %19)
  ret void
}

; Function Attrs: null_pointer_is_valid sspstrong uwtable
define internal i32 @dissect_iperf3_tcp(ptr noundef %0, ptr noundef %1, ptr noundef %2, ptr noundef %3) #0 {
  %5 = alloca ptr, align 8
  %6 = alloca ptr, align 8
  %7 = alloca ptr, align 8
  %8 = alloca ptr, align 8
  %9 = alloca [37 x i8], align 16
  %10 = alloca ptr, align 8
  %11 = alloca ptr, align 8
  %12 = alloca ptr, align 8
  store ptr %0, ptr %5, align 8
  store ptr %1, ptr %6, align 8
  store ptr %2, ptr %7, align 8
  store ptr %3, ptr %8, align 8
  call void @llvm.lifetime.start.p0(i64 37, ptr %9) #6
  call void @llvm.lifetime.start.p0(i64 8, ptr %10) #6
  %13 = load ptr, ptr %6, align 8
  %14 = call ptr @find_conversation_pinfo(ptr noundef %13, i32 noundef 0)
  %15 = load i32, ptr @proto_iperf3, align 4
  %16 = call ptr @conversation_get_proto_data(ptr noundef %14, i32 noundef %15)
  store ptr %16, ptr %10, align 8
  call void @llvm.lifetime.start.p0(i64 8, ptr %11) #6
  %17 = call ptr @wmem_file_scope()
  %18 = load ptr, ptr %6, align 8
  %19 = load i32, ptr @proto_iperf3, align 4
  %20 = call ptr @p_get_proto_data(ptr noundef %17, ptr noundef %18, i32 noundef %19, i32 noundef 0)
  store ptr %20, ptr %11, align 8
  %21 = load ptr, ptr %10, align 8
  %22 = icmp ne ptr %21, null
  br i1 %22, label %58, label %23

23:                                               ; preds = %4
  %24 = call ptr @wmem_file_scope()
  %25 = call noalias ptr @wmem_alloc0(ptr noundef %24, i64 noundef 12) #7
  store ptr %25, ptr %10, align 8
  %26 = load ptr, ptr %10, align 8
  %27 = getelementptr inbounds nuw %struct.iperf3_tcp_conversation_data, ptr %26, i32 0, i32 0
  store i8 0, ptr %27, align 4
  %28 = load ptr, ptr %10, align 8
  %29 = getelementptr inbounds nuw %struct.iperf3_tcp_conversation_data, ptr %28, i32 0, i32 1
  store i32 37, ptr %29, align 4
  %30 = load ptr, ptr %10, align 8
  %31 = getelementptr inbounds nuw %struct.iperf3_tcp_conversation_data, ptr %30, i32 0, i32 2
  store i32 0, ptr %31, align 4
  %32 = load ptr, ptr %5, align 8
  %33 = getelementptr inbounds [37 x i8], ptr %9, i64 0, i64 0
  %34 = call i32 @tvb_get_raw_bytes_as_stringz(ptr noundef %32, i32 noundef 0, i32 noundef 37, ptr noundef %33)
  %35 = icmp eq i32 %34, 36
  br i1 %35, label %36, label %53

36:                                               ; preds = %23
  %37 = load ptr, ptr @cookiejar, align 8
  %38 = getelementptr inbounds [37 x i8], ptr %9, i64 0, i64 0
  %39 = call zeroext i1 @wmem_map_contains(ptr noundef %37, ptr noundef %38)
  br i1 %39, label %52, label %40

40:                                               ; preds = %36
  call void @llvm.lifetime.start.p0(i64 8, ptr %12) #6
  %41 = call ptr @wmem_file_scope()
  %42 = getelementptr inbounds [37 x i8], ptr %9, i64 0, i64 0
  %43 = call noalias ptr @wmem_strndup(ptr noundef %41, ptr noundef %42, i64 noundef 37)
  store ptr %43, ptr %12, align 8
  %44 = load ptr, ptr @cookiejar, align 8
  %45 = load ptr, ptr %12, align 8
  %46 = call ptr @wmem_map_insert(ptr noundef %44, ptr noundef %45, ptr noundef null)
  %47 = icmp ne ptr %46, null
  br i1 %47, label %48, label %49

48:                                               ; preds = %40
  call void (ptr, ...) @proto_report_dissector_bug(ptr noundef @.str.50, ptr noundef @.str.51, i32 noundef 362) #8
  unreachable

49:                                               ; preds = %40
  %50 = load ptr, ptr %10, align 8
  %51 = getelementptr inbounds nuw %struct.iperf3_tcp_conversation_data, ptr %50, i32 0, i32 0
  store i8 1, ptr %51, align 4
  call void @llvm.lifetime.end.p0(i64 8, ptr %12) #6
  br label %52

52:                                               ; preds = %49, %36
  br label %53

53:                                               ; preds = %52, %23
  %54 = load ptr, ptr %6, align 8
  %55 = call ptr @find_conversation_pinfo(ptr noundef %54, i32 noundef 0)
  %56 = load i32, ptr @proto_iperf3, align 4
  %57 = load ptr, ptr %10, align 8
  call void @conversation_add_proto_data(ptr noundef %55, i32 noundef %56, ptr noundef %57)
  br label %58

58:                                               ; preds = %53, %4
  %59 = load ptr, ptr %6, align 8
  %60 = getelementptr inbounds nuw %struct._packet_info, ptr %59, i32 0, i32 8
  %61 = load ptr, ptr %60, align 8
  %62 = getelementptr inbounds nuw %struct._frame_data, ptr %61, i32 0, i32 11
  %63 = load i16, ptr %62, align 1
  %64 = lshr i16 %63, 3
  %65 = and i16 %64, 1
  %66 = zext i16 %65 to i32
  %67 = icmp ne i32 %66, 0
  br i1 %67, label %85, label %68

68:                                               ; preds = %58
  %69 = call ptr @wmem_file_scope()
  %70 = call noalias ptr @wmem_alloc0(ptr noundef %69, i64 noundef 8) #7
  store ptr %70, ptr %11, align 8
  %71 = load ptr, ptr %10, align 8
  %72 = getelementptr inbounds nuw %struct.iperf3_tcp_conversation_data, ptr %71, i32 0, i32 1
  %73 = load i32, ptr %72, align 4
  %74 = load ptr, ptr %11, align 8
  %75 = getelementptr inbounds nuw %struct.iperf3_tcp_packet_data, ptr %74, i32 0, i32 0
  store i32 %73, ptr %75, align 4
  %76 = load ptr, ptr %10, align 8
  %77 = getelementptr inbounds nuw %struct.iperf3_tcp_conversation_data, ptr %76, i32 0, i32 2
  %78 = load i32, ptr %77, align 4
  %79 = load ptr, ptr %11, align 8
  %80 = getelementptr inbounds nuw %struct.iperf3_tcp_packet_data, ptr %79, i32 0, i32 1
  store i32 %78, ptr %80, align 4
  %81 = call ptr @wmem_file_scope()
  %82 = load ptr, ptr %6, align 8
  %83 = load i32, ptr @proto_iperf3, align 4
  %84 = load ptr, ptr %11, align 8
  call void @p_add_proto_data(ptr noundef %81, ptr noundef %82, i32 noundef %83, i32 noundef 0, ptr noundef %84)
  br label %102

85:                                               ; preds = %58
  %86 = load ptr, ptr %11, align 8
  %87 = icmp ne ptr %86, null
  br i1 %87, label %88, label %89

88:                                               ; preds = %85
  br label %91

89:                                               ; preds = %85
  call void (ptr, ...) @proto_report_dissector_bug(ptr noundef @.str.52, ptr noundef @.str.51, i32 noundef 392, ptr noundef @.str.53) #8
  unreachable

90:                                               ; No predecessors!
  br label %91

91:                                               ; preds = %90, %88
  %92 = load ptr, ptr %11, align 8
  %93 = getelementptr inbounds nuw %struct.iperf3_tcp_packet_data, ptr %92, i32 0, i32 0
  %94 = load i32, ptr %93, align 4
  %95 = load ptr, ptr %10, align 8
  %96 = getelementptr inbounds nuw %struct.iperf3_tcp_conversation_data, ptr %95, i32 0, i32 1
  store i32 %94, ptr %96, align 4
  %97 = load ptr, ptr %11, align 8
  %98 = getelementptr inbounds nuw %struct.iperf3_tcp_packet_data, ptr %97, i32 0, i32 1
  %99 = load i32, ptr %98, align 4
  %100 = load ptr, ptr %10, align 8
  %101 = getelementptr inbounds nuw %struct.iperf3_tcp_conversation_data, ptr %100, i32 0, i32 2
  store i32 %99, ptr %101, align 4
  br label %102

102:                                              ; preds = %91, %68
  %103 = load ptr, ptr %10, align 8
  %104 = getelementptr inbounds nuw %struct.iperf3_tcp_conversation_data, ptr %103, i32 0, i32 0
  %105 = load i8, ptr %104, align 4, !range !6, !noundef !7
  %106 = trunc i8 %105 to i1
  br i1 %106, label %107, label %113

107:                                              ; preds = %102
  %108 = load ptr, ptr %6, align 8
  call void @col_info_preface_TCP(ptr noundef %108)
  %109 = load ptr, ptr %5, align 8
  %110 = load ptr, ptr %6, align 8
  %111 = load ptr, ptr %7, align 8
  %112 = load ptr, ptr %10, align 8
  call void @tcp_dissect_pdus(ptr noundef %109, ptr noundef %110, ptr noundef %111, i1 noundef zeroext false, i32 noundef 1, ptr noundef @get_iperf3_pdu_len, ptr noundef @dissect_iperf3_control_pdu, ptr noundef %112)
  br label %119

113:                                              ; preds = %102
  %114 = load ptr, ptr %5, align 8
  %115 = load ptr, ptr %6, align 8
  %116 = load ptr, ptr %7, align 8
  %117 = load ptr, ptr %10, align 8
  %118 = call i32 @dissect_iperf3_data_pdu(ptr noundef %114, ptr noundef %115, ptr noundef %116, ptr noundef %117)
  br label %119

119:                                              ; preds = %113, %107
  %120 = load ptr, ptr %5, align 8
  %121 = call i32 @tvb_reported_length(ptr noundef %120)
  call void @llvm.lifetime.end.p0(i64 8, ptr %11) #6
  call void @llvm.lifetime.end.p0(i64 8, ptr %10) #6
  call void @llvm.lifetime.end.p0(i64 37, ptr %9) #6
  ret i32 %121
}