; Function Attrs: null_pointer_is_valid sspstrong uwtable
define internal i32 @dissect_iperf3_tcp(ptr noundef %0, ptr noundef %1, ptr noundef %2, ptr readnone captures(none) %3) #0 {
  %5 = alloca ptr, align 8
  %6 = alloca [37 x i8], align 16
  call void @llvm.lifetime.start.p0(i64 37, ptr nonnull %6) #6
  %7 = tail call ptr @find_conversation_pinfo(ptr noundef %1, i32 noundef 0)
  %8 = load i32, ptr @proto_iperf3, align 4
  %9 = tail call ptr @conversation_get_proto_data(ptr noundef %7, i32 noundef %8)
  %10 = tail call ptr @wmem_file_scope()
  %11 = load i32, ptr @proto_iperf3, align 4
  %12 = tail call ptr @p_get_proto_data(ptr noundef %10, ptr noundef %1, i32 noundef %11, i32 noundef 0)
  %.not = icmp eq ptr %9, null
  br i1 %.not, label %13, label %33

13:                                               ; preds = %4
  %14 = tail call ptr @wmem_file_scope()
  %15 = tail call noalias dereferenceable_or_null(12) ptr @wmem_alloc0(ptr noundef %14, i64 noundef 12) #7
  store i8 0, ptr %15, align 4
  %16 = getelementptr inbounds nuw i8, ptr %15, i64 4
  store i32 37, ptr %16, align 4
  %17 = getelementptr inbounds nuw i8, ptr %15, i64 8
  store i32 0, ptr %17, align 4
  %18 = call i32 @tvb_get_raw_bytes_as_stringz(ptr noundef %0, i32 noundef 0, i32 noundef 37, ptr noundef nonnull %6)
  %19 = icmp eq i32 %18, 36
  br i1 %19, label %20, label %30

20:                                               ; preds = %13
  %21 = load ptr, ptr @cookiejar, align 8
  %22 = call zeroext i1 @wmem_map_contains(ptr noundef %21, ptr noundef nonnull %6)
  br i1 %22, label %30, label %23

23:                                               ; preds = %20
  %24 = call ptr @wmem_file_scope()
  %25 = call noalias ptr @wmem_strndup(ptr noundef %24, ptr noundef nonnull %6, i64 noundef 37)
  %26 = load ptr, ptr @cookiejar, align 8
  %27 = call ptr @wmem_map_insert(ptr noundef %26, ptr noundef %25, ptr noundef null)
  %.not36 = icmp eq ptr %27, null
  br i1 %.not36, label %29, label %28

28:                                               ; preds = %23
  call void (ptr, ...) @proto_report_dissector_bug(ptr noundef nonnull @.str.50, ptr noundef nonnull @.str.51, i32 noundef 362) #8
  unreachable

29:                                               ; preds = %23
  store i8 1, ptr %15, align 4
  br label %30

30:                                               ; preds = %20, %29, %13
  %31 = call ptr @find_conversation_pinfo(ptr noundef %1, i32 noundef 0)
  %32 = load i32, ptr @proto_iperf3, align 4
  call void @conversation_add_proto_data(ptr noundef %31, i32 noundef %32, ptr noundef %15)
  br label %33

33:                                               ; preds = %30, %4
  %.0 = phi ptr [ %9, %4 ], [ %15, %30 ]
  %34 = getelementptr inbounds nuw i8, ptr %1, i64 80
  %35 = load ptr, ptr %34, align 8
  %36 = getelementptr inbounds nuw i8, ptr %35, i64 57
  %37 = load i16, ptr %36, align 1
  %38 = and i16 %37, 8
  %.not37 = icmp eq i16 %38, 0
  br i1 %.not37, label %39, label %49

39:                                               ; preds = %33
  %40 = call ptr @wmem_file_scope()
  %41 = call noalias dereferenceable_or_null(8) ptr @wmem_alloc0(ptr noundef %40, i64 noundef 8) #7
  %42 = getelementptr inbounds nuw i8, ptr %.0, i64 4
  %43 = load i32, ptr %42, align 4
  store i32 %43, ptr %41, align 4
  %44 = getelementptr inbounds nuw i8, ptr %.0, i64 8
  %45 = load i32, ptr %44, align 4
  %46 = getelementptr inbounds nuw i8, ptr %41, i64 4
  store i32 %45, ptr %46, align 4
  %47 = call ptr @wmem_file_scope()
  %48 = load i32, ptr @proto_iperf3, align 4
  call void @p_add_proto_data(ptr noundef %47, ptr noundef %1, i32 noundef %48, i32 noundef 0, ptr noundef %41)
  br label %57

49:                                               ; preds = %33
  %.not38 = icmp eq ptr %12, null
  br i1 %.not38, label %50, label %51

50:                                               ; preds = %49
  call void (ptr, ...) @proto_report_dissector_bug(ptr noundef nonnull @.str.52, ptr noundef nonnull @.str.51, i32 noundef 392, ptr noundef nonnull @.str.53) #8
  unreachable

51:                                               ; preds = %49
  %52 = load i32, ptr %12, align 4
  %53 = getelementptr inbounds nuw i8, ptr %.0, i64 4
  store i32 %52, ptr %53, align 4
  %54 = getelementptr inbounds nuw i8, ptr %12, i64 4
  %55 = load i32, ptr %54, align 4
  %56 = getelementptr inbounds nuw i8, ptr %.0, i64 8
  store i32 %55, ptr %56, align 4
  br label %57

57:                                               ; preds = %51, %39
  %58 = load i8, ptr %.0, align 4, !range !6, !noundef !7
  %59 = trunc nuw i8 %58 to i1
  br i1 %59, label %60, label %71

60:                                               ; preds = %57
  %61 = getelementptr inbounds nuw i8, ptr %1, i64 8
  %62 = load ptr, ptr %61, align 8
  call void @col_set_str(ptr noundef %62, i32 noundef 35, ptr noundef nonnull @.str.15)
  %63 = load ptr, ptr %61, align 8
  call void @col_clear(ptr noundef %63, i32 noundef 25)
  %64 = load ptr, ptr %61, align 8
  %65 = getelementptr inbounds nuw i8, ptr %1, i64 284
  %66 = load i32, ptr %65, align 4
  %67 = trunc i32 %66 to i16
  %68 = getelementptr inbounds nuw i8, ptr %1, i64 288
  %69 = load i32, ptr %68, align 8
  %70 = trunc i32 %69 to i16
  call void @col_append_ports(ptr noundef %64, i32 noundef 25, i32 noundef 2, i16 noundef zeroext %67, i16 noundef zeroext %70)
  call void @tcp_dissect_pdus(ptr noundef %0, ptr noundef %1, ptr noundef %2, i1 noundef zeroext false, i32 noundef 1, ptr noundef nonnull @get_iperf3_pdu_len, ptr noundef nonnull @dissect_iperf3_control_pdu, ptr noundef %.0)
  br label %100

71:                                               ; preds = %57
  %72 = load i32, ptr @proto_iperf3, align 4
  %73 = call ptr @proto_tree_add_item(ptr noundef %2, i32 noundef %72, ptr noundef %0, i32 noundef 0, i32 noundef -1, i32 noundef 0)
  %74 = load i32, ptr @ett_iperf3, align 4
  %75 = call ptr @proto_item_add_subtree(ptr noundef %73, i32 noundef %74)
  %76 = getelementptr inbounds nuw i8, ptr %.0, i64 8
  %77 = load i32, ptr %76, align 4
  switch i32 %77, label %98 [
    i32 0, label %78
    i32 8, label %96
  ]

78:                                               ; preds = %71
  call void @llvm.lifetime.start.p0(i64 8, ptr nonnull %5) #6
  %79 = load i32, ptr @hf_iperf3_cookie, align 4
  %80 = getelementptr inbounds nuw i8, ptr %1, i64 408
  %81 = load ptr, ptr %80, align 8
  %82 = call ptr @proto_tree_add_item_ret_string(ptr noundef %75, i32 noundef %79, ptr noundef %0, i32 noundef 0, i32 noundef 37, i32 noundef 0, ptr noundef %81, ptr noundef nonnull %5)
  %83 = getelementptr inbounds nuw i8, ptr %1, i64 8
  %84 = load ptr, ptr %83, align 8
  call void @col_set_str(ptr noundef %84, i32 noundef 35, ptr noundef nonnull @.str.15)
  %85 = load ptr, ptr %83, align 8
  call void @col_clear(ptr noundef %85, i32 noundef 25)
  %86 = load ptr, ptr %83, align 8
  %87 = getelementptr inbounds nuw i8, ptr %1, i64 284
  %88 = load i32, ptr %87, align 4
  %89 = trunc i32 %88 to i16
  %90 = getelementptr inbounds nuw i8, ptr %1, i64 288
  %91 = load i32, ptr %90, align 8
  %92 = trunc i32 %91 to i16
  call void @col_append_ports(ptr noundef %86, i32 noundef 25, i32 noundef 2, i16 noundef zeroext %89, i16 noundef zeroext %92)
  %93 = load ptr, ptr %83, align 8
  %94 = load ptr, ptr %5, align 8
  call void (ptr, i32, ptr, ...) @col_append_fstr(ptr noundef %93, i32 noundef 25, ptr noundef nonnull @.str.54, ptr noundef %94)
  %95 = getelementptr inbounds nuw i8, ptr %.0, i64 4
  store i32 0, ptr %95, align 4
  store i32 8, ptr %76, align 4
  call void @llvm.lifetime.end.p0(i64 8, ptr nonnull %5) #6
  br label %dissect_iperf3_data_pdu.exit

96:                                               ; preds = %71
  %97 = call i32 @call_data_dissector(ptr noundef %0, ptr noundef %1, ptr noundef %2)
  br label %dissect_iperf3_data_pdu.exit

98:                                               ; preds = %71
  call void (ptr, ...) @proto_report_dissector_bug(ptr noundef nonnull @.str.50, ptr noundef nonnull @.str.51, i32 noundef 313) #8
  unreachable

dissect_iperf3_data_pdu.exit:                     ; preds = %78, %96
  %99 = call i32 @tvb_reported_length(ptr noundef %0)
  br label %100

100:                                              ; preds = %dissect_iperf3_data_pdu.exit, %60
  %101 = call i32 @tvb_reported_length(ptr noundef %0)
  call void @llvm.lifetime.end.p0(i64 37, ptr nonnull %6) #6
  ret i32 %101
}